target datalayout = "e-m:e-p270:32:32-p271:32:32-p272:64:64-i64:64-i128:128-f80:128-n8:16:32:64-S128"
target triple = "x86_64-pc-linux-gnu"

%class.LIR_Assembler = type { ptr, ptr, ptr, ptr, ptr, ptr, i32, i32, %class.Label }
%class.Label = type <{ i32, [4 x i32], i32, ptr, i8, [7 x i8] }>
%class.CodeSection = type { ptr, ptr, ptr, ptr, ptr, ptr, ptr, ptr, i8, i8, i32, i8, ptr }
%class.AbstractAssembler = type { ptr, ptr, ptr }
%class.StateSplit = type { %class.Instruction, ptr }
%class.Instruction = type { ptr, i32, i32, i32, ptr, ptr, ptr, %class.LIR_Opr, i32, ptr, ptr, ptr, ptr }
%class.LIR_Opr = type { i64 }
%class.DebugInformationRecorder = type <{ ptr, i8, [7 x i8], ptr, ptr, ptr, ptr, ptr, ptr, i32, i32, i32, [4 x i8] }>
%class.LIR_Op = type { ptr, %class.LIR_Opr, i16, i16, ptr, i32, i32, ptr }
%class.PcDesc = type { i32, i32, i32, i32 }

@g_assert_poison = external global ptr, align 8
@.str.7 = private unnamed_addr constant [40 x i8] c"src/hotspot/share/code/debugInfoRec.hpp\00", align 1
@.str.8 = private unnamed_addr constant [34 x i8] c"guarantee(_pcs_length > 0) failed\00", align 1
@.str.9 = private unnamed_addr constant [37 x i8] c"a safepoint must be declared already\00", align 1

; Function Attrs: mustprogress nounwind uwtable
define linkonce_odr hidden noundef i32 @_ZNK11CodeSection4sizeEv(ptr noundef nonnull align 8 dereferenceable(88) %0) #1 comdat align 2 {
  %2 = alloca ptr, align 8
  store ptr %0, ptr %2, align 8
  %3 = load ptr, ptr %2, align 8
  %4 = getelementptr inbounds %class.CodeSection, ptr %3, i32 0, i32 2
  %5 = load ptr, ptr %4, align 8
  %6 = getelementptr inbounds %class.CodeSection, ptr %3, i32 0, i32 0
  %7 = load ptr, ptr %6, align 8
  %8 = ptrtoint ptr %5 to i64
  %9 = ptrtoint ptr %7 to i64
  %10 = sub i64 %8, %9
  %11 = trunc i64 %10 to i32
  ret i32 %11
}

; Function Attrs: mustprogress nounwind uwtable
define linkonce_odr hidden noundef ptr @_ZNK17AbstractAssembler12code_sectionEv(ptr noundef nonnull align 8 dereferenceable(24) %0) #1 comdat align 2 {
  %2 = alloca ptr, align 8
  store ptr %0, ptr %2, align 8
  %3 = load ptr, ptr %2, align 8
  %4 = getelementptr inbounds %class.AbstractAssembler, ptr %3, i32 0, i32 1
  %5 = load ptr, ptr %4, align 8
  ret ptr %5
}

; Function Attrs: mustprogress nounwind uwtable
define linkonce_odr hidden noundef i32 @_ZNK6PcDesc9pc_offsetEv(ptr noundef nonnull align 4 dereferenceable(16) %0) #1 comdat align 2 {
  %2 = alloca ptr, align 8
  store ptr %0, ptr %2, align 8
  %3 = load ptr, ptr %2, align 8
  %4 = getelementptr inbounds %class.PcDesc, ptr %3, i32 0, i32 0
  %5 = load i32, ptr %4, align 4
  ret i32 %5
}

; Function Attrs: mustprogress nounwind uwtable
define linkonce_odr hidden noundef ptr @_ZN24DebugInformationRecorder7last_pcEv(ptr noundef nonnull align 8 dereferenceable(76) %0) #1 comdat align 2 {
  %2 = alloca ptr, align 8
  store ptr %0, ptr %2, align 8
  %3 = load ptr, ptr %2, align 8
  br label %4

4:                                                ; preds = %1
  %5 = getelementptr inbounds %class.DebugInformationRecorder, ptr %3, i32 0, i32 10
  %6 = load i32, ptr %5, align 4
  %7 = icmp sgt i32 %6, 0
  br i1 %7, label %10, label %8

8:                                                ; preds = %4
  %9 = load ptr, ptr @g_assert_poison, align 8
  store i8 88, ptr %9, align 1
  call void (ptr, i32, ptr, ptr, ...) @_Z15report_vm_errorPKciS0_S0_z(ptr noundef @.str.7, i32 noundef 192, ptr noundef @.str.8, ptr noundef @.str.9) #7
  unreachable

10:                                               ; preds = %4
  br label %11

11:                                               ; preds = %10
  %12 = getelementptr inbounds %class.DebugInformationRecorder, ptr %3, i32 0, i32 8
  %13 = load ptr, ptr %12, align 8
  %14 = getelementptr inbounds %class.DebugInformationRecorder, ptr %3, i32 0, i32 10
  %15 = load i32, ptr %14, align 4
  %16 = sub nsw i32 %15, 1
  %17 = sext i32 %16 to i64
  %18 = getelementptr inbounds %class.PcDesc, ptr %13, i64 %17
  ret ptr %18
}

; Function Attrs: mustprogress nounwind uwtable
define linkonce_odr hidden noundef ptr @_ZNK11Instruction12state_beforeEv(ptr noundef nonnull align 8 dereferenceable(96) %0) #1 comdat align 2 {
  %2 = alloca ptr, align 8
  store ptr %0, ptr %2, align 8
  %3 = load ptr, ptr %2, align 8
  %4 = getelementptr inbounds %class.Instruction, ptr %3, i32 0, i32 9
  %5 = load ptr, ptr %4, align 8
  ret ptr %5
}

; Function Attrs: mustprogress nounwind uwtable
define linkonce_odr hidden noundef ptr @_ZNK10StateSplit5stateEv(ptr noundef nonnull align 8 dereferenceable(104) %0) #1 comdat align 2 {
  %2 = alloca ptr, align 8
  store ptr %0, ptr %2, align 8
  %3 = load ptr, ptr %2, align 8
  %4 = getelementptr inbounds %class.StateSplit, ptr %3, i32 0, i32 1
  %5 = load ptr, ptr %4, align 8
  ret ptr %5
}

; Function Attrs: mustprogress nounwind uwtable
define linkonce_odr hidden noundef i32 @_ZNK17AbstractAssembler6offsetEv(ptr noundef nonnull align 8 dereferenceable(24) %0) #1 comdat align 2 {
  %2 = alloca ptr, align 8
  store ptr %0, ptr %2, align 8
  %3 = load ptr, ptr %2, align 8
  %4 = call noundef ptr @_ZNK17AbstractAssembler12code_sectionEv(ptr noundef nonnull align 8 dereferenceable(24) %3)
  %5 = call noundef i32 @_ZNK11CodeSection4sizeEv(ptr noundef nonnull align 8 dereferenceable(88) %4)
  ret i32 %5
}

; Function Attrs: mustprogress nounwind uwtable
define linkonce_odr hidden noundef i32 @_ZN24DebugInformationRecorder14last_pc_offsetEv(ptr noundef nonnull align 8 dereferenceable(76) %0) #1 comdat align 2 {
  %2 = alloca ptr, align 8
  store ptr %0, ptr %2, align 8
  %3 = load ptr, ptr %2, align 8
  %4 = call noundef ptr @_ZN24DebugInformationRecorder7last_pcEv(ptr noundef nonnull align 8 dereferenceable(76) %3)
  %5 = call noundef i32 @_ZNK6PcDesc9pc_offsetEv(ptr noundef nonnull align 4 dereferenceable(16) %4)
  ret i32 %5
}

; Function Attrs: mustprogress nounwind uwtable
define linkonce_odr hidden noundef ptr @_ZNK13LIR_Assembler11compilationEv(ptr noundef nonnull align 8 dereferenceable(96) %0) #1 comdat align 2 {
  %2 = alloca ptr, align 8
  store ptr %0, ptr %2, align 8
  %3 = load ptr, ptr %2, align 8
  %4 = getelementptr inbounds %class.LIR_Assembler, ptr %3, i32 0, i32 2
  %5 = load ptr, ptr %4, align 8
  ret ptr %5
}

; Function Attrs: mustprogress nounwind uwtable
define internal noundef ptr @_ZL10debug_infoP11Instruction(ptr noundef %0) #1 {
  %2 = alloca ptr, align 8
  %3 = alloca ptr, align 8
  %4 = alloca ptr, align 8
  store ptr %0, ptr %3, align 8
  %5 = load ptr, ptr %3, align 8
  %6 = load ptr, ptr %5, align 8
  %7 = getelementptr inbounds ptr, ptr %6, i64 23
  %8 = load ptr, ptr %7, align 8
  %9 = call noundef ptr %8(ptr noundef nonnull align 8 dereferenceable(96) %5)
  store ptr %9, ptr %4, align 8
  %10 = load ptr, ptr %4, align 8
  %11 = icmp ne ptr %10, null
  br i1 %11, label %12, label %15

12:                                               ; preds = %1
  %13 = load ptr, ptr %4, align 8
  %14 = call noundef ptr @_ZNK10StateSplit5stateEv(ptr noundef nonnull align 8 dereferenceable(104) %13)
  store ptr %14, ptr %2, align 8
  br label %18

15:                                               ; preds = %1
  %16 = load ptr, ptr %3, align 8
  %17 = call noundef ptr @_ZNK11Instruction12state_beforeEv(ptr noundef nonnull align 8 dereferenceable(96) %16)
  store ptr %17, ptr %2, align 8
  br label %18

18:                                               ; preds = %15, %12
  %19 = load ptr, ptr %2, align 8
  ret ptr %19
}

; Function Attrs: mustprogress nounwind uwtable
define hidden noundef i32 @_ZNK13LIR_Assembler11code_offsetEv(ptr noundef nonnull align 8 dereferenceable(96) %0) #1 align 2 {
  %2 = alloca ptr, align 8
  store ptr %0, ptr %2, align 8
  %3 = load ptr, ptr %2, align 8
  %4 = getelementptr inbounds %class.LIR_Assembler, ptr %3, i32 0, i32 0
  %5 = load ptr, ptr %4, align 8
  %6 = call noundef i32 @_ZNK17AbstractAssembler6offsetEv(ptr noundef nonnull align 8 dereferenceable(24) %5)
  ret i32 %6
}

; Function Attrs: mustprogress nounwind uwtable
define linkonce_odr hidden noundef ptr @_ZNK6LIR_Op6sourceEv(ptr noundef nonnull align 8 dereferenceable(48) %0) #1 comdat align 2 {
  %2 = alloca ptr, align 8
  store ptr %0, ptr %2, align 8
  %3 = load ptr, ptr %2, align 8
  %4 = getelementptr inbounds %class.LIR_Op, ptr %3, i32 0, i32 7
  %5 = load ptr, ptr %4, align 8
  ret ptr %5
}

; Function Attrs: mustprogress nounwind uwtable
define hidden void @_ZN13LIR_Assembler18process_debug_infoEP6LIR_Op(ptr noundef nonnull align 8 dereferenceable(96) %0, ptr noundef %1) #1 align 2 {
  %3 = alloca ptr, align 8
  %4 = alloca ptr, align 8
  %5 = alloca ptr, align 8
  %6 = alloca i32, align 4
  %7 = alloca ptr, align 8
  store ptr %0, ptr %3, align 8
  store ptr %1, ptr %4, align 8
  %8 = load ptr, ptr %3, align 8
  %9 = load ptr, ptr %4, align 8
  %10 = call noundef ptr @_ZNK6LIR_Op6sourceEv(ptr noundef nonnull align 8 dereferenceable(48) %9)
  store ptr %10, ptr %5, align 8
  %11 = load ptr, ptr %5, align 8
  %12 = icmp eq ptr %11, null
  br i1 %12, label %13, label %14

13:                                               ; preds = %2
  br label %61

14:                                               ; preds = %2
  %15 = call noundef i32 @_ZNK13LIR_Assembler11code_offsetEv(ptr noundef nonnull align 8 dereferenceable(96) %8)
  store i32 %15, ptr %6, align 4
  %16 = getelementptr inbounds %class.LIR_Assembler, ptr %8, i32 0, i32 5
  %17 = load ptr, ptr %16, align 8
  %18 = load ptr, ptr %5, align 8
  %19 = icmp eq ptr %17, %18
  br i1 %19, label %20, label %23

20:                                               ; preds = %14
  %21 = load i32, ptr %6, align 4
  %22 = getelementptr inbounds %class.LIR_Assembler, ptr %8, i32 0, i32 6
  store i32 %21, ptr %22, align 8
  br label %61

23:                                               ; preds = %14
  %24 = load ptr, ptr %5, align 8
  %25 = call noundef ptr @_ZL10debug_infoP11Instruction(ptr noundef %24)
  store ptr %25, ptr %7, align 8
  %26 = load ptr, ptr %7, align 8
  %27 = icmp eq ptr %26, null
  br i1 %27, label %28, label %29

28:                                               ; preds = %23
  br label %61

29:                                               ; preds = %23
  %30 = getelementptr inbounds %class.LIR_Assembler, ptr %8, i32 0, i32 5
  %31 = load ptr, ptr %30, align 8
  %32 = icmp ne ptr %31, null
  br i1 %32, label %33, label %50

33:                                               ; preds = %29
  %34 = getelementptr inbounds %class.LIR_Assembler, ptr %8, i32 0, i32 5
  %35 = load ptr, ptr %34, align 8
  %36 = call noundef ptr @_ZL10debug_infoP11Instruction(ptr noundef %35)
  %37 = load ptr, ptr %7, align 8
  %38 = icmp eq ptr %36, %37
  br i1 %38, label %39, label %42

39:                                               ; preds = %33
  %40 = load i32, ptr %6, align 4
  %41 = getelementptr inbounds %class.LIR_Assembler, ptr %8, i32 0, i32 6
  store i32 %40, ptr %41, align 8
  br label %61

42:                                               ; preds = %33
  %43 = getelementptr inbounds %class.LIR_Assembler, ptr %8, i32 0, i32 6
  %44 = load i32, ptr %43, align 8
  %45 = load i32, ptr %6, align 4
  %46 = icmp slt i32 %44, %45
  br i1 %46, label %47, label %48

47:                                               ; preds = %42
  call void @_ZN13LIR_Assembler31record_non_safepoint_debug_infoEv(ptr noundef nonnull align 8 dereferenceable(96) %8)
  br label %48

48:                                               ; preds = %47, %42
  %49 = getelementptr inbounds %class.LIR_Assembler, ptr %8, i32 0, i32 5
  store ptr null, ptr %49, align 8
  br label %50

50:                                               ; preds = %48, %29
  %51 = load i32, ptr %6, align 4
  %52 = call noundef ptr @_ZNK13LIR_Assembler11compilationEv(ptr noundef nonnull align 8 dereferenceable(96) %8)
  %53 = call noundef ptr @_ZNK11Compilation19debug_info_recorderEv(ptr noundef nonnull align 8 dereferenceable(704) %52)
  %54 = call noundef i32 @_ZN24DebugInformationRecorder14last_pc_offsetEv(ptr noundef nonnull align 8 dereferenceable(76) %53)
  %55 = icmp sgt i32 %51, %54
  br i1 %55, label %56, label %61

56:                                               ; preds = %50
  %57 = load ptr, ptr %5, align 8
  %58 = getelementptr inbounds %class.LIR_Assembler, ptr %8, i32 0, i32 5
  store ptr %57, ptr %58, align 8
  %59 = load i32, ptr %6, align 4
  %60 = getelementptr inbounds %class.LIR_Assembler, ptr %8, i32 0, i32 6
  store i32 %59, ptr %60, align 8
  br label %61

61:                                               ; preds = %56, %50, %39, %28, %20, %13
  ret void
}