; Function Attrs: mustprogress nounwind uwtable
define hidden void @_ZN13LIR_Assembler18process_debug_infoEP6LIR_Op(ptr nocapture noundef nonnull align 8 dereferenceable(96) %0, ptr nocapture noundef readonly %1) local_unnamed_addr #0 align 2 {
  %3 = getelementptr inbounds i8, ptr %1, i64 40
  %4 = load ptr, ptr %3, align 8
  %5 = icmp eq ptr %4, null
  br i1 %5, label %64, label %6

6:                                                ; preds = %2
  %7 = load ptr, ptr %0, align 8
  %8 = getelementptr inbounds i8, ptr %7, i64 8
  %9 = load ptr, ptr %8, align 8
  %10 = getelementptr inbounds i8, ptr %9, i64 16
  %11 = load ptr, ptr %10, align 8
  %12 = load ptr, ptr %9, align 8
  %13 = ptrtoint ptr %11 to i64
  %14 = ptrtoint ptr %12 to i64
  %15 = sub i64 %13, %14
  %16 = trunc i64 %15 to i32
  %17 = getelementptr inbounds i8, ptr %0, i64 40
  %18 = load ptr, ptr %17, align 8
  %19 = icmp eq ptr %18, %4
  br i1 %19, label %20, label %22

20:                                               ; preds = %6
  %21 = getelementptr inbounds i8, ptr %0, i64 48
  br label %.sink.split

22:                                               ; preds = %6
  %23 = load ptr, ptr %4, align 8
  %24 = getelementptr inbounds i8, ptr %23, i64 184
  %25 = load ptr, ptr %24, align 8
  %26 = tail call noundef ptr %25(ptr noundef nonnull align 8 dereferenceable(96) %4) #11
  %.not.i = icmp eq ptr %26, null
  %27 = getelementptr inbounds i8, ptr %26, i64 96
  %28 = getelementptr inbounds i8, ptr %4, i64 64
  %.0.in.i = select i1 %.not.i, ptr %28, ptr %27
  %.0.i = load ptr, ptr %.0.in.i, align 8
  %29 = icmp eq ptr %.0.i, null
  br i1 %29, label %64, label %30

30:                                               ; preds = %22
  %31 = load ptr, ptr %17, align 8
  %.not = icmp eq ptr %31, null
  br i1 %.not, label %46, label %32

32:                                               ; preds = %30
  %33 = load ptr, ptr %31, align 8
  %34 = getelementptr inbounds i8, ptr %33, i64 184
  %35 = load ptr, ptr %34, align 8
  %36 = tail call noundef ptr %35(ptr noundef nonnull align 8 dereferenceable(96) %31) #11
  %.not.i15 = icmp eq ptr %36, null
  %37 = getelementptr inbounds i8, ptr %36, i64 96
  %38 = getelementptr inbounds i8, ptr %31, i64 64
  %.0.in.i16 = select i1 %.not.i15, ptr %38, ptr %37
  %.0.i17 = load ptr, ptr %.0.in.i16, align 8
  %39 = icmp eq ptr %.0.i17, %.0.i
  %40 = getelementptr inbounds i8, ptr %0, i64 48
  br i1 %39, label %.sink.split, label %41

41:                                               ; preds = %32
  %42 = load i32, ptr %40, align 8
  %43 = icmp slt i32 %42, %16
  br i1 %43, label %44, label %45

44:                                               ; preds = %41
  tail call void @_ZN13LIR_Assembler31record_non_safepoint_debug_infoEv(ptr noundef nonnull align 8 dereferenceable(96) %0)
  br label %45

45:                                               ; preds = %44, %41
  store ptr null, ptr %17, align 8
  br label %46

46:                                               ; preds = %45, %30
  %47 = getelementptr inbounds i8, ptr %0, i64 16
  %48 = load ptr, ptr %47, align 8
  %49 = tail call noundef ptr @_ZNK11Compilation19debug_info_recorderEv(ptr noundef nonnull align 8 dereferenceable(704) %48) #11
  %50 = getelementptr inbounds i8, ptr %49, i64 68
  %51 = load i32, ptr %50, align 4
  %52 = icmp sgt i32 %51, 0
  br i1 %52, label %_ZN24DebugInformationRecorder14last_pc_offsetEv.exit, label %53

53:                                               ; preds = %46
  %54 = load ptr, ptr @g_assert_poison, align 8
  store i8 88, ptr %54, align 1
  tail call void (ptr, i32, ptr, ptr, ...) @_Z15report_vm_errorPKciS0_S0_z(ptr noundef nonnull @.str.7, i32 noundef 192, ptr noundef nonnull @.str.8, ptr noundef nonnull @.str.9) #12
  unreachable

_ZN24DebugInformationRecorder14last_pc_offsetEv.exit: ; preds = %46
  %55 = getelementptr inbounds i8, ptr %49, i64 56
  %56 = load ptr, ptr %55, align 8
  %57 = zext nneg i32 %51 to i64
  %58 = getelementptr %class.PcDesc, ptr %56, i64 %57
  %59 = getelementptr i8, ptr %58, i64 -16
  %60 = load i32, ptr %59, align 4
  %61 = icmp slt i32 %60, %16
  br i1 %61, label %62, label %64

62:                                               ; preds = %_ZN24DebugInformationRecorder14last_pc_offsetEv.exit
  store ptr %4, ptr %17, align 8
  %63 = getelementptr inbounds i8, ptr %0, i64 48
  br label %.sink.split

.sink.split:                                      ; preds = %32, %20, %62
  %.sink = phi ptr [ %63, %62 ], [ %21, %20 ], [ %40, %32 ]
  store i32 %16, ptr %.sink, align 8
  br label %64

64:                                               ; preds = %.sink.split, %22, %2, %_ZN24DebugInformationRecorder14last_pc_offsetEv.exit
  ret void
}